; Function Attrs: nounwind uwtable
define dso_local noundef i32 @errbacktrace() local_unnamed_addr #3 {
  %1 = load i32, ptr @errordata_stack_depth, align 4
  %2 = load i32, ptr @recursion_depth, align 4
  %3 = add i32 %2, 1
  store i32 %3, ptr @recursion_depth, align 4
  %4 = icmp slt i32 %1, 0
  br i1 %4, label %5, label %8

5:                                                ; preds = %0
  store i32 -1, ptr @errordata_stack_depth, align 4
  %6 = tail call zeroext i1 @errstart_cold(i32 noundef 21, ptr noundef null) #33
  tail call void @llvm.assume(i1 %6)
  %7 = tail call i32 (ptr, ...) @errmsg_internal(ptr noundef nonnull @.str.1)
  tail call void @errfinish(ptr noundef nonnull @.str.2, i32 noundef 1098, ptr noundef nonnull @__func__.errbacktrace)
  unreachable

8:                                                ; preds = %0
  %9 = zext nneg i32 %1 to i64
  %10 = getelementptr inbounds nuw [5 x %struct.ErrorData], ptr @errordata, i64 0, i64 %9
  %11 = getelementptr inbounds nuw i8, ptr %10, i64 176
  %12 = load ptr, ptr %11, align 8
  %13 = load ptr, ptr @CurrentMemoryContext, align 8
  store ptr %12, ptr @CurrentMemoryContext, align 8
  tail call fastcc void @set_backtrace(ptr noundef nonnull %10, i32 noundef 1)
  store ptr %13, ptr @CurrentMemoryContext, align 8
  %14 = load i32, ptr @recursion_depth, align 4
  %15 = add i32 %14, -1
  store i32 %15, ptr @recursion_depth, align 4
  ret i32 0
}